target datalayout = "e-m:e-p270:32:32-p271:32:32-p272:64:64-i64:64-i128:128-f80:128-n8:16:32:64-S128"
target triple = "x86_64-pc-linux-gnu"

%struct._quic_stream_info = type { i64, i64, i32, i32, ptr, i8 }
%struct._quic_stream_state = type { i64, ptr, ptr }

; Function Attrs: null_pointer_is_valid sspstrong uwtable
define hidden ptr @quic_stream_get_proto_data(ptr noundef %0, ptr noundef %1) #0 {
  %3 = alloca ptr, align 8
  %4 = alloca ptr, align 8
  %5 = alloca ptr, align 8
  store ptr %0, ptr %3, align 8
  store ptr %1, ptr %4, align 8
  call void @llvm.lifetime.start.p0(i64 8, ptr %5) #19
  %6 = load ptr, ptr %3, align 8
  %7 = load ptr, ptr %4, align 8
  %8 = getelementptr inbounds nuw %struct._quic_stream_info, ptr %7, i32 0, i32 4
  %9 = load ptr, ptr %8, align 8
  %10 = load ptr, ptr %4, align 8
  %11 = getelementptr inbounds nuw %struct._quic_stream_info, ptr %10, i32 0, i32 5
  %12 = load i8, ptr %11, align 8, !range !6, !noundef !7
  %13 = trunc i8 %12 to i1
  %14 = load ptr, ptr %4, align 8
  %15 = getelementptr inbounds nuw %struct._quic_stream_info, ptr %14, i32 0, i32 0
  %16 = load i64, ptr %15, align 8
  %17 = call ptr @quic_get_stream_state(ptr noundef %6, ptr noundef %9, i1 noundef zeroext %13, i64 noundef %16)
  store ptr %17, ptr %5, align 8
  %18 = load ptr, ptr %5, align 8
  %19 = getelementptr inbounds nuw %struct._quic_stream_state, ptr %18, i32 0, i32 2
  %20 = load ptr, ptr %19, align 8
  call void @llvm.lifetime.end.p0(i64 8, ptr %5) #19
  ret ptr %20
}