; Function Attrs: null_pointer_is_valid sspstrong uwtable
define hidden ptr @quic_stream_get_proto_data(ptr noundef readonly captures(none) %0, ptr noundef readonly captures(none) %1) local_unnamed_addr #0 {
  %3 = getelementptr inbounds nuw i8, ptr %1, i64 24
  %4 = load ptr, ptr %3, align 8
  %5 = getelementptr inbounds nuw i8, ptr %1, i64 32
  %6 = load i8, ptr %5, align 8, !range !6, !noundef !7
  %7 = trunc nuw i8 %6 to i1
  %8 = load i64, ptr %1, align 8
  %9 = getelementptr i8, ptr %0, i64 80
  %.val = load ptr, ptr %9, align 8
  %10 = getelementptr i8, ptr %.val, i64 57
  %.val.val = load i16, ptr %10, align 1
  %11 = tail call fastcc ptr @quic_get_stream_state(i16 %.val.val, ptr noundef %4, i1 noundef zeroext %7, i64 noundef %8)
  %12 = getelementptr inbounds nuw i8, ptr %11, i64 16
  %13 = load ptr, ptr %12, align 8
  ret ptr %13
}